; Function Attrs: inlinehint mustprogress nofree norecurse nosync nounwind willreturn memory(none) uwtable
define internal fastcc range(i32 -260013952, 15728640) i32 @unicode_to_utf8word(i32 noundef %0) unnamed_addr #3 {
  %2 = icmp ult i32 %0, 128
  br i1 %2, label %34, label %3

3:                                                ; preds = %1
  %4 = icmp ult i32 %0, 2048
  br i1 %4, label %5, label %11

5:                                                ; preds = %3
  %6 = shl nuw nsw i32 %0, 2
  %7 = and i32 %6, 7936
  %8 = and i32 %0, 63
  %9 = or disjoint i32 %8, %7
  %10 = or disjoint i32 %9, 49280
  br label %34

11:                                               ; preds = %3
  %12 = icmp ult i32 %0, 65536
  br i1 %12, label %13, label %22

13:                                               ; preds = %11
  %14 = shl nuw nsw i32 %0, 4
  %15 = and i32 %14, 983040
  %16 = shl nuw nsw i32 %0, 2
  %17 = and i32 %16, 16128
  %18 = and i32 %0, 63
  %19 = or disjoint i32 %18, %17
  %20 = or disjoint i32 %19, %15
  %21 = or disjoint i32 %20, 14712960
  br label %34

22:                                               ; preds = %11
  %23 = shl i32 %0, 6
  %24 = and i32 %23, 117440512
  %25 = shl i32 %0, 4
  %26 = and i32 %25, 4128768
  %27 = shl i32 %0, 2
  %28 = and i32 %27, 16128
  %29 = and i32 %0, 63
  %30 = or disjoint i32 %29, %26
  %31 = or disjoint i32 %30, %24
  %32 = or disjoint i32 %31, %28
  %33 = or disjoint i32 %32, -260013952
  br label %34

34:                                               ; preds = %1, %5, %22, %13
  %.0 = phi i32 [ %10, %5 ], [ %21, %13 ], [ %33, %22 ], [ %0, %1 ]
  ret i32 %.0
}